target datalayout = "e-m:e-p270:32:32-p271:32:32-p272:64:64-i64:64-i128:128-f80:128-n8:16:32:64-S128"
target triple = "x86_64-pc-linux-gnu"

; Function Attrs: inlinehint nounwind uwtable
define internal void @chacha20_quarter_round(ptr noundef %0, i64 noundef %1, i64 noundef %2, i64 noundef %3, i64 noundef %4) #6 {
  %6 = alloca ptr, align 8
  %7 = alloca i64, align 8
  %8 = alloca i64, align 8
  %9 = alloca i64, align 8
  %10 = alloca i64, align 8
  store ptr %0, ptr %6, align 8, !tbaa !21
  store i64 %1, ptr %7, align 8, !tbaa !16
  store i64 %2, ptr %8, align 8, !tbaa !16
  store i64 %3, ptr %9, align 8, !tbaa !16
  store i64 %4, ptr %10, align 8, !tbaa !16
  %11 = load ptr, ptr %6, align 8, !tbaa !21
  %12 = load i64, ptr %8, align 8, !tbaa !16
  %13 = getelementptr inbounds nuw i32, ptr %11, i64 %12
  %14 = load i32, ptr %13, align 4, !tbaa !13
  %15 = load ptr, ptr %6, align 8, !tbaa !21
  %16 = load i64, ptr %7, align 8, !tbaa !16
  %17 = getelementptr inbounds nuw i32, ptr %15, i64 %16
  %18 = load i32, ptr %17, align 4, !tbaa !13
  %19 = add i32 %18, %14
  store i32 %19, ptr %17, align 4, !tbaa !13
  %20 = load ptr, ptr %6, align 8, !tbaa !21
  %21 = load i64, ptr %7, align 8, !tbaa !16
  %22 = getelementptr inbounds nuw i32, ptr %20, i64 %21
  %23 = load i32, ptr %22, align 4, !tbaa !13
  %24 = load ptr, ptr %6, align 8, !tbaa !21
  %25 = load i64, ptr %10, align 8, !tbaa !16
  %26 = getelementptr inbounds nuw i32, ptr %24, i64 %25
  %27 = load i32, ptr %26, align 4, !tbaa !13
  %28 = xor i32 %27, %23
  store i32 %28, ptr %26, align 4, !tbaa !13
  %29 = load ptr, ptr %6, align 8, !tbaa !21
  %30 = load i64, ptr %10, align 8, !tbaa !16
  %31 = getelementptr inbounds nuw i32, ptr %29, i64 %30
  %32 = load i32, ptr %31, align 4, !tbaa !13
  %33 = shl i32 %32, 16
  %34 = load ptr, ptr %6, align 8, !tbaa !21
  %35 = load i64, ptr %10, align 8, !tbaa !16
  %36 = getelementptr inbounds nuw i32, ptr %34, i64 %35
  %37 = load i32, ptr %36, align 4, !tbaa !13
  %38 = lshr i32 %37, 16
  %39 = or i32 %33, %38
  %40 = load ptr, ptr %6, align 8, !tbaa !21
  %41 = load i64, ptr %10, align 8, !tbaa !16
  %42 = getelementptr inbounds nuw i32, ptr %40, i64 %41
  store i32 %39, ptr %42, align 4, !tbaa !13
  %43 = load ptr, ptr %6, align 8, !tbaa !21
  %44 = load i64, ptr %10, align 8, !tbaa !16
  %45 = getelementptr inbounds nuw i32, ptr %43, i64 %44
  %46 = load i32, ptr %45, align 4, !tbaa !13
  %47 = load ptr, ptr %6, align 8, !tbaa !21
  %48 = load i64, ptr %9, align 8, !tbaa !16
  %49 = getelementptr inbounds nuw i32, ptr %47, i64 %48
  %50 = load i32, ptr %49, align 4, !tbaa !13
  %51 = add i32 %50, %46
  store i32 %51, ptr %49, align 4, !tbaa !13
  %52 = load ptr, ptr %6, align 8, !tbaa !21
  %53 = load i64, ptr %9, align 8, !tbaa !16
  %54 = getelementptr inbounds nuw i32, ptr %52, i64 %53
  %55 = load i32, ptr %54, align 4, !tbaa !13
  %56 = load ptr, ptr %6, align 8, !tbaa !21
  %57 = load i64, ptr %8, align 8, !tbaa !16
  %58 = getelementptr inbounds nuw i32, ptr %56, i64 %57
  %59 = load i32, ptr %58, align 4, !tbaa !13
  %60 = xor i32 %59, %55
  store i32 %60, ptr %58, align 4, !tbaa !13
  %61 = load ptr, ptr %6, align 8, !tbaa !21
  %62 = load i64, ptr %8, align 8, !tbaa !16
  %63 = getelementptr inbounds nuw i32, ptr %61, i64 %62
  %64 = load i32, ptr %63, align 4, !tbaa !13
  %65 = shl i32 %64, 12
  %66 = load ptr, ptr %6, align 8, !tbaa !21
  %67 = load i64, ptr %8, align 8, !tbaa !16
  %68 = getelementptr inbounds nuw i32, ptr %66, i64 %67
  %69 = load i32, ptr %68, align 4, !tbaa !13
  %70 = lshr i32 %69, 20
  %71 = or i32 %65, %70
  %72 = load ptr, ptr %6, align 8, !tbaa !21
  %73 = load i64, ptr %8, align 8, !tbaa !16
  %74 = getelementptr inbounds nuw i32, ptr %72, i64 %73
  store i32 %71, ptr %74, align 4, !tbaa !13
  %75 = load ptr, ptr %6, align 8, !tbaa !21
  %76 = load i64, ptr %8, align 8, !tbaa !16
  %77 = getelementptr inbounds nuw i32, ptr %75, i64 %76
  %78 = load i32, ptr %77, align 4, !tbaa !13
  %79 = load ptr, ptr %6, align 8, !tbaa !21
  %80 = load i64, ptr %7, align 8, !tbaa !16
  %81 = getelementptr inbounds nuw i32, ptr %79, i64 %80
  %82 = load i32, ptr %81, align 4, !tbaa !13
  %83 = add i32 %82, %78
  store i32 %83, ptr %81, align 4, !tbaa !13
  %84 = load ptr, ptr %6, align 8, !tbaa !21
  %85 = load i64, ptr %7, align 8, !tbaa !16
  %86 = getelementptr inbounds nuw i32, ptr %84, i64 %85
  %87 = load i32, ptr %86, align 4, !tbaa !13
  %88 = load ptr, ptr %6, align 8, !tbaa !21
  %89 = load i64, ptr %10, align 8, !tbaa !16
  %90 = getelementptr inbounds nuw i32, ptr %88, i64 %89
  %91 = load i32, ptr %90, align 4, !tbaa !13
  %92 = xor i32 %91, %87
  store i32 %92, ptr %90, align 4, !tbaa !13
  %93 = load ptr, ptr %6, align 8, !tbaa !21
  %94 = load i64, ptr %10, align 8, !tbaa !16
  %95 = getelementptr inbounds nuw i32, ptr %93, i64 %94
  %96 = load i32, ptr %95, align 4, !tbaa !13
  %97 = shl i32 %96, 8
  %98 = load ptr, ptr %6, align 8, !tbaa !21
  %99 = load i64, ptr %10, align 8, !tbaa !16
  %100 = getelementptr inbounds nuw i32, ptr %98, i64 %99
  %101 = load i32, ptr %100, align 4, !tbaa !13
  %102 = lshr i32 %101, 24
  %103 = or i32 %97, %102
  %104 = load ptr, ptr %6, align 8, !tbaa !21
  %105 = load i64, ptr %10, align 8, !tbaa !16
  %106 = getelementptr inbounds nuw i32, ptr %104, i64 %105
  store i32 %103, ptr %106, align 4, !tbaa !13
  %107 = load ptr, ptr %6, align 8, !tbaa !21
  %108 = load i64, ptr %10, align 8, !tbaa !16
  %109 = getelementptr inbounds nuw i32, ptr %107, i64 %108
  %110 = load i32, ptr %109, align 4, !tbaa !13
  %111 = load ptr, ptr %6, align 8, !tbaa !21
  %112 = load i64, ptr %9, align 8, !tbaa !16
  %113 = getelementptr inbounds nuw i32, ptr %111, i64 %112
  %114 = load i32, ptr %113, align 4, !tbaa !13
  %115 = add i32 %114, %110
  store i32 %115, ptr %113, align 4, !tbaa !13
  %116 = load ptr, ptr %6, align 8, !tbaa !21
  %117 = load i64, ptr %9, align 8, !tbaa !16
  %118 = getelementptr inbounds nuw i32, ptr %116, i64 %117
  %119 = load i32, ptr %118, align 4, !tbaa !13
  %120 = load ptr, ptr %6, align 8, !tbaa !21
  %121 = load i64, ptr %8, align 8, !tbaa !16
  %122 = getelementptr inbounds nuw i32, ptr %120, i64 %121
  %123 = load i32, ptr %122, align 4, !tbaa !13
  %124 = xor i32 %123, %119
  store i32 %124, ptr %122, align 4, !tbaa !13
  %125 = load ptr, ptr %6, align 8, !tbaa !21
  %126 = load i64, ptr %8, align 8, !tbaa !16
  %127 = getelementptr inbounds nuw i32, ptr %125, i64 %126
  %128 = load i32, ptr %127, align 4, !tbaa !13
  %129 = shl i32 %128, 7
  %130 = load ptr, ptr %6, align 8, !tbaa !21
  %131 = load i64, ptr %8, align 8, !tbaa !16
  %132 = getelementptr inbounds nuw i32, ptr %130, i64 %131
  %133 = load i32, ptr %132, align 4, !tbaa !13
  %134 = lshr i32 %133, 25
  %135 = or i32 %129, %134
  %136 = load ptr, ptr %6, align 8, !tbaa !21
  %137 = load i64, ptr %8, align 8, !tbaa !16
  %138 = getelementptr inbounds nuw i32, ptr %136, i64 %137
  store i32 %135, ptr %138, align 4, !tbaa !13
  ret void
}

; Function Attrs: alwaysinline nounwind uwtable
define internal void @mbedtls_put_unaligned_uint32(ptr noundef %0, i32 noundef %1) #2 {
  %3 = alloca ptr, align 8
  %4 = alloca i32, align 4
  store ptr %0, ptr %3, align 8, !tbaa !15
  store i32 %1, ptr %4, align 4, !tbaa !13
  %5 = load ptr, ptr %3, align 8, !tbaa !15
  call void @llvm.memcpy.p0.p0.i64(ptr align 1 %5, ptr align 4 %4, i64 4, i1 false)
  ret void
}

; Function Attrs: nounwind uwtable
define internal void @chacha20_inner_block(ptr noundef %0) #0 {
  %2 = alloca ptr, align 8
  store ptr %0, ptr %2, align 8, !tbaa !21
  %3 = load ptr, ptr %2, align 8, !tbaa !21
  call void @chacha20_quarter_round(ptr noundef %3, i64 noundef 0, i64 noundef 4, i64 noundef 8, i64 noundef 12)
  %4 = load ptr, ptr %2, align 8, !tbaa !21
  call void @chacha20_quarter_round(ptr noundef %4, i64 noundef 1, i64 noundef 5, i64 noundef 9, i64 noundef 13)
  %5 = load ptr, ptr %2, align 8, !tbaa !21
  call void @chacha20_quarter_round(ptr noundef %5, i64 noundef 2, i64 noundef 6, i64 noundef 10, i64 noundef 14)
  %6 = load ptr, ptr %2, align 8, !tbaa !21
  call void @chacha20_quarter_round(ptr noundef %6, i64 noundef 3, i64 noundef 7, i64 noundef 11, i64 noundef 15)
  %7 = load ptr, ptr %2, align 8, !tbaa !21
  call void @chacha20_quarter_round(ptr noundef %7, i64 noundef 0, i64 noundef 5, i64 noundef 10, i64 noundef 15)
  %8 = load ptr, ptr %2, align 8, !tbaa !21
  call void @chacha20_quarter_round(ptr noundef %8, i64 noundef 1, i64 noundef 6, i64 noundef 11, i64 noundef 12)
  %9 = load ptr, ptr %2, align 8, !tbaa !21
  call void @chacha20_quarter_round(ptr noundef %9, i64 noundef 2, i64 noundef 7, i64 noundef 8, i64 noundef 13)
  %10 = load ptr, ptr %2, align 8, !tbaa !21
  call void @chacha20_quarter_round(ptr noundef %10, i64 noundef 3, i64 noundef 4, i64 noundef 9, i64 noundef 14)
  ret void
}

; Function Attrs: nounwind uwtable
define internal void @chacha20_block(ptr noundef %0, ptr noundef %1) #0 {
  %3 = alloca ptr, align 8
  %4 = alloca ptr, align 8
  %5 = alloca [16 x i32], align 16
  %6 = alloca i64, align 8
  %7 = alloca i64, align 8
  store ptr %0, ptr %3, align 8, !tbaa !21
  store ptr %1, ptr %4, align 8, !tbaa !11
  call void @llvm.lifetime.start.p0(i64 64, ptr %5) #7
  call void @llvm.lifetime.start.p0(i64 8, ptr %6) #7
  %8 = getelementptr inbounds [16 x i32], ptr %5, i64 0, i64 0
  %9 = load ptr, ptr %3, align 8, !tbaa !21
  call void @llvm.memcpy.p0.p0.i64(ptr align 16 %8, ptr align 4 %9, i64 64, i1 false)
  store i64 0, ptr %6, align 8, !tbaa !16
  br label %10

10:                                               ; preds = %15, %2
  %11 = load i64, ptr %6, align 8, !tbaa !16
  %12 = icmp ult i64 %11, 10
  br i1 %12, label %13, label %18

13:                                               ; preds = %10
  %14 = getelementptr inbounds [16 x i32], ptr %5, i64 0, i64 0
  call void @chacha20_inner_block(ptr noundef %14)
  br label %15

15:                                               ; preds = %13
  %16 = load i64, ptr %6, align 8, !tbaa !16
  %17 = add i64 %16, 1
  store i64 %17, ptr %6, align 8, !tbaa !16
  br label %10, !llvm.loop !23

18:                                               ; preds = %10
  %19 = load ptr, ptr %3, align 8, !tbaa !21
  %20 = getelementptr inbounds i32, ptr %19, i64 0
  %21 = load i32, ptr %20, align 4, !tbaa !13
  %22 = getelementptr inbounds [16 x i32], ptr %5, i64 0, i64 0
  %23 = load i32, ptr %22, align 16, !tbaa !13
  %24 = add i32 %23, %21
  store i32 %24, ptr %22, align 16, !tbaa !13
  %25 = load ptr, ptr %3, align 8, !tbaa !21
  %26 = getelementptr inbounds i32, ptr %25, i64 1
  %27 = load i32, ptr %26, align 4, !tbaa !13
  %28 = getelementptr inbounds [16 x i32], ptr %5, i64 0, i64 1
  %29 = load i32, ptr %28, align 4, !tbaa !13
  %30 = add i32 %29, %27
  store i32 %30, ptr %28, align 4, !tbaa !13
  %31 = load ptr, ptr %3, align 8, !tbaa !21
  %32 = getelementptr inbounds i32, ptr %31, i64 2
  %33 = load i32, ptr %32, align 4, !tbaa !13
  %34 = getelementptr inbounds [16 x i32], ptr %5, i64 0, i64 2
  %35 = load i32, ptr %34, align 8, !tbaa !13
  %36 = add i32 %35, %33
  store i32 %36, ptr %34, align 8, !tbaa !13
  %37 = load ptr, ptr %3, align 8, !tbaa !21
  %38 = getelementptr inbounds i32, ptr %37, i64 3
  %39 = load i32, ptr %38, align 4, !tbaa !13
  %40 = getelementptr inbounds [16 x i32], ptr %5, i64 0, i64 3
  %41 = load i32, ptr %40, align 4, !tbaa !13
  %42 = add i32 %41, %39
  store i32 %42, ptr %40, align 4, !tbaa !13
  %43 = load ptr, ptr %3, align 8, !tbaa !21
  %44 = getelementptr inbounds i32, ptr %43, i64 4
  %45 = load i32, ptr %44, align 4, !tbaa !13
  %46 = getelementptr inbounds [16 x i32], ptr %5, i64 0, i64 4
  %47 = load i32, ptr %46, align 16, !tbaa !13
  %48 = add i32 %47, %45
  store i32 %48, ptr %46, align 16, !tbaa !13
  %49 = load ptr, ptr %3, align 8, !tbaa !21
  %50 = getelementptr inbounds i32, ptr %49, i64 5
  %51 = load i32, ptr %50, align 4, !tbaa !13
  %52 = getelementptr inbounds [16 x i32], ptr %5, i64 0, i64 5
  %53 = load i32, ptr %52, align 4, !tbaa !13
  %54 = add i32 %53, %51
  store i32 %54, ptr %52, align 4, !tbaa !13
  %55 = load ptr, ptr %3, align 8, !tbaa !21
  %56 = getelementptr inbounds i32, ptr %55, i64 6
  %57 = load i32, ptr %56, align 4, !tbaa !13
  %58 = getelementptr inbounds [16 x i32], ptr %5, i64 0, i64 6
  %59 = load i32, ptr %58, align 8, !tbaa !13
  %60 = add i32 %59, %57
  store i32 %60, ptr %58, align 8, !tbaa !13
  %61 = load ptr, ptr %3, align 8, !tbaa !21
  %62 = getelementptr inbounds i32, ptr %61, i64 7
  %63 = load i32, ptr %62, align 4, !tbaa !13
  %64 = getelementptr inbounds [16 x i32], ptr %5, i64 0, i64 7
  %65 = load i32, ptr %64, align 4, !tbaa !13
  %66 = add i32 %65, %63
  store i32 %66, ptr %64, align 4, !tbaa !13
  %67 = load ptr, ptr %3, align 8, !tbaa !21
  %68 = getelementptr inbounds i32, ptr %67, i64 8
  %69 = load i32, ptr %68, align 4, !tbaa !13
  %70 = getelementptr inbounds [16 x i32], ptr %5, i64 0, i64 8
  %71 = load i32, ptr %70, align 16, !tbaa !13
  %72 = add i32 %71, %69
  store i32 %72, ptr %70, align 16, !tbaa !13
  %73 = load ptr, ptr %3, align 8, !tbaa !21
  %74 = getelementptr inbounds i32, ptr %73, i64 9
  %75 = load i32, ptr %74, align 4, !tbaa !13
  %76 = getelementptr inbounds [16 x i32], ptr %5, i64 0, i64 9
  %77 = load i32, ptr %76, align 4, !tbaa !13
  %78 = add i32 %77, %75
  store i32 %78, ptr %76, align 4, !tbaa !13
  %79 = load ptr, ptr %3, align 8, !tbaa !21
  %80 = getelementptr inbounds i32, ptr %79, i64 10
  %81 = load i32, ptr %80, align 4, !tbaa !13
  %82 = getelementptr inbounds [16 x i32], ptr %5, i64 0, i64 10
  %83 = load i32, ptr %82, align 8, !tbaa !13
  %84 = add i32 %83, %81
  store i32 %84, ptr %82, align 8, !tbaa !13
  %85 = load ptr, ptr %3, align 8, !tbaa !21
  %86 = getelementptr inbounds i32, ptr %85, i64 11
  %87 = load i32, ptr %86, align 4, !tbaa !13
  %88 = getelementptr inbounds [16 x i32], ptr %5, i64 0, i64 11
  %89 = load i32, ptr %88, align 4, !tbaa !13
  %90 = add i32 %89, %87
  store i32 %90, ptr %88, align 4, !tbaa !13
  %91 = load ptr, ptr %3, align 8, !tbaa !21
  %92 = getelementptr inbounds i32, ptr %91, i64 12
  %93 = load i32, ptr %92, align 4, !tbaa !13
  %94 = getelementptr inbounds [16 x i32], ptr %5, i64 0, i64 12
  %95 = load i32, ptr %94, align 16, !tbaa !13
  %96 = add i32 %95, %93
  store i32 %96, ptr %94, align 16, !tbaa !13
  %97 = load ptr, ptr %3, align 8, !tbaa !21
  %98 = getelementptr inbounds i32, ptr %97, i64 13
  %99 = load i32, ptr %98, align 4, !tbaa !13
  %100 = getelementptr inbounds [16 x i32], ptr %5, i64 0, i64 13
  %101 = load i32, ptr %100, align 4, !tbaa !13
  %102 = add i32 %101, %99
  store i32 %102, ptr %100, align 4, !tbaa !13
  %103 = load ptr, ptr %3, align 8, !tbaa !21
  %104 = getelementptr inbounds i32, ptr %103, i64 14
  %105 = load i32, ptr %104, align 4, !tbaa !13
  %106 = getelementptr inbounds [16 x i32], ptr %5, i64 0, i64 14
  %107 = load i32, ptr %106, align 8, !tbaa !13
  %108 = add i32 %107, %105
  store i32 %108, ptr %106, align 8, !tbaa !13
  %109 = load ptr, ptr %3, align 8, !tbaa !21
  %110 = getelementptr inbounds i32, ptr %109, i64 15
  %111 = load i32, ptr %110, align 4, !tbaa !13
  %112 = getelementptr inbounds [16 x i32], ptr %5, i64 0, i64 15
  %113 = load i32, ptr %112, align 4, !tbaa !13
  %114 = add i32 %113, %111
  store i32 %114, ptr %112, align 4, !tbaa !13
  store i64 0, ptr %6, align 8, !tbaa !16
  br label %115

115:                                              ; preds = %127, %18
  %116 = load i64, ptr %6, align 8, !tbaa !16
  %117 = icmp ult i64 %116, 16
  br i1 %117, label %118, label %130

118:                                              ; preds = %115
  call void @llvm.lifetime.start.p0(i64 8, ptr %7) #7
  %119 = load i64, ptr %6, align 8, !tbaa !16
  %120 = mul i64 %119, 4
  store i64 %120, ptr %7, align 8, !tbaa !16
  %121 = load ptr, ptr %4, align 8, !tbaa !11
  %122 = load i64, ptr %7, align 8, !tbaa !16
  %123 = getelementptr inbounds nuw i8, ptr %121, i64 %122
  %124 = load i64, ptr %6, align 8, !tbaa !16
  %125 = getelementptr inbounds nuw [16 x i32], ptr %5, i64 0, i64 %124
  %126 = load i32, ptr %125, align 4, !tbaa !13
  call void @mbedtls_put_unaligned_uint32(ptr noundef %123, i32 noundef %126)
  call void @llvm.lifetime.end.p0(i64 8, ptr %7) #7
  br label %127

127:                                              ; preds = %118
  %128 = load i64, ptr %6, align 8, !tbaa !16
  %129 = add i64 %128, 1
  store i64 %129, ptr %6, align 8, !tbaa !16
  br label %115, !llvm.loop !24

130:                                              ; preds = %115
  %131 = getelementptr inbounds [16 x i32], ptr %5, i64 0, i64 0
  call void @mbedtls_platform_zeroize(ptr noundef %131, i64 noundef 64)
  call void @llvm.lifetime.end.p0(i64 8, ptr %6) #7
  call void @llvm.lifetime.end.p0(i64 64, ptr %5) #7
  ret void
}