; Function Attrs: nounwind uwtable
define internal fastcc void @chacha20_block(ptr noundef readonly captures(none) %0, ptr noundef writeonly captures(none) %1) unnamed_addr #0 {
  %3 = alloca [16 x i32], align 16
  call void @llvm.lifetime.start.p0(i64 64, ptr nonnull %3) #10
  call void @llvm.memcpy.p0.p0.i64(ptr noundef nonnull align 16 dereferenceable(64) %3, ptr noundef nonnull align 4 dereferenceable(64) %0, i64 64, i1 false)
  %4 = getelementptr inbounds nuw i8, ptr %3, i64 16
  %5 = getelementptr inbounds nuw i8, ptr %3, i64 48
  %6 = getelementptr inbounds nuw i8, ptr %3, i64 32
  %7 = getelementptr inbounds nuw i8, ptr %3, i64 20
  %8 = getelementptr inbounds nuw i8, ptr %3, i64 4
  %9 = getelementptr inbounds nuw i8, ptr %3, i64 52
  %10 = getelementptr inbounds nuw i8, ptr %3, i64 36
  %11 = getelementptr inbounds nuw i8, ptr %3, i64 24
  %12 = getelementptr inbounds nuw i8, ptr %3, i64 8
  %13 = getelementptr inbounds nuw i8, ptr %3, i64 56
  %14 = getelementptr inbounds nuw i8, ptr %3, i64 40
  %15 = getelementptr inbounds nuw i8, ptr %3, i64 28
  %16 = getelementptr inbounds nuw i8, ptr %3, i64 12
  %17 = getelementptr inbounds nuw i8, ptr %3, i64 60
  %18 = getelementptr inbounds nuw i8, ptr %3, i64 44
  %.promoted = load i32, ptr %4, align 16, !tbaa !8
  %.promoted24 = load i32, ptr %3, align 16, !tbaa !8
  %.promoted26 = load i32, ptr %5, align 16, !tbaa !8
  %.promoted28 = load i32, ptr %6, align 16, !tbaa !8
  %.promoted30 = load i32, ptr %7, align 4, !tbaa !8
  %.promoted32 = load i32, ptr %8, align 4, !tbaa !8
  %.promoted34 = load i32, ptr %9, align 4, !tbaa !8
  %.promoted36 = load i32, ptr %10, align 4, !tbaa !8
  %.promoted38 = load i32, ptr %11, align 8, !tbaa !8
  %.promoted40 = load i32, ptr %12, align 8, !tbaa !8
  %.promoted42 = load i32, ptr %13, align 8, !tbaa !8
  %.promoted44 = load i32, ptr %14, align 8, !tbaa !8
  %.promoted46 = load i32, ptr %15, align 4, !tbaa !8
  %.promoted48 = load i32, ptr %16, align 4, !tbaa !8
  %.promoted50 = load i32, ptr %17, align 4, !tbaa !8
  %.promoted52 = load i32, ptr %18, align 4, !tbaa !8
  br label %19

19:                                               ; preds = %2, %19
  %.054 = phi i64 [ 0, %2 ], [ %132, %19 ]
  %20 = phi i32 [ %.promoted, %2 ], [ %131, %19 ]
  %21 = phi i32 [ %.promoted24, %2 ], [ %90, %19 ]
  %22 = phi i32 [ %.promoted26, %2 ], [ %104, %19 ]
  %23 = phi i32 [ %.promoted28, %2 ], [ %117, %19 ]
  %24 = phi i32 [ %.promoted30, %2 ], [ %95, %19 ]
  %25 = phi i32 [ %.promoted32, %2 ], [ %102, %19 ]
  %26 = phi i32 [ %.promoted34, %2 ], [ %116, %19 ]
  %27 = phi i32 [ %.promoted36, %2 ], [ %129, %19 ]
  %28 = phi i32 [ %.promoted38, %2 ], [ %107, %19 ]
  %29 = phi i32 [ %.promoted40, %2 ], [ %114, %19 ]
  %30 = phi i32 [ %.promoted42, %2 ], [ %128, %19 ]
  %31 = phi i32 [ %.promoted44, %2 ], [ %93, %19 ]
  %32 = phi i32 [ %.promoted46, %2 ], [ %119, %19 ]
  %33 = phi i32 [ %.promoted48, %2 ], [ %126, %19 ]
  %34 = phi i32 [ %.promoted50, %2 ], [ %92, %19 ]
  %35 = phi i32 [ %.promoted52, %2 ], [ %105, %19 ]
  %36 = add i32 %21, %20
  %37 = xor i32 %22, %36
  %38 = tail call i32 @llvm.fshl.i32(i32 %37, i32 %37, i32 16)
  %39 = add i32 %38, %23
  %40 = xor i32 %39, %20
  %41 = tail call i32 @llvm.fshl.i32(i32 %40, i32 %40, i32 12)
  %42 = add i32 %41, %36
  %43 = xor i32 %42, %38
  %44 = tail call i32 @llvm.fshl.i32(i32 %43, i32 %43, i32 8)
  %45 = add i32 %44, %39
  %46 = xor i32 %45, %41
  %47 = tail call i32 @llvm.fshl.i32(i32 %46, i32 %46, i32 7)
  %48 = add i32 %25, %24
  %49 = xor i32 %26, %48
  %50 = tail call i32 @llvm.fshl.i32(i32 %49, i32 %49, i32 16)
  %51 = add i32 %50, %27
  %52 = xor i32 %51, %24
  %53 = tail call i32 @llvm.fshl.i32(i32 %52, i32 %52, i32 12)
  %54 = add i32 %53, %48
  %55 = xor i32 %54, %50
  %56 = tail call i32 @llvm.fshl.i32(i32 %55, i32 %55, i32 8)
  %57 = add i32 %56, %51
  %58 = xor i32 %57, %53
  %59 = tail call i32 @llvm.fshl.i32(i32 %58, i32 %58, i32 7)
  %60 = add i32 %29, %28
  %61 = xor i32 %30, %60
  %62 = tail call i32 @llvm.fshl.i32(i32 %61, i32 %61, i32 16)
  %63 = add i32 %62, %31
  %64 = xor i32 %63, %28
  %65 = tail call i32 @llvm.fshl.i32(i32 %64, i32 %64, i32 12)
  %66 = add i32 %65, %60
  %67 = xor i32 %66, %62
  %68 = tail call i32 @llvm.fshl.i32(i32 %67, i32 %67, i32 8)
  %69 = add i32 %68, %63
  %70 = xor i32 %69, %65
  %71 = tail call i32 @llvm.fshl.i32(i32 %70, i32 %70, i32 7)
  %72 = add i32 %33, %32
  %73 = xor i32 %34, %72
  %74 = tail call i32 @llvm.fshl.i32(i32 %73, i32 %73, i32 16)
  %75 = add i32 %74, %35
  %76 = xor i32 %75, %32
  %77 = tail call i32 @llvm.fshl.i32(i32 %76, i32 %76, i32 12)
  %78 = add i32 %77, %72
  %79 = xor i32 %78, %74
  %80 = tail call i32 @llvm.fshl.i32(i32 %79, i32 %79, i32 8)
  %81 = add i32 %80, %75
  %82 = xor i32 %81, %77
  %83 = tail call i32 @llvm.fshl.i32(i32 %82, i32 %82, i32 7)
  %84 = add i32 %59, %42
  %85 = xor i32 %80, %84
  %86 = tail call i32 @llvm.fshl.i32(i32 %85, i32 %85, i32 16)
  %87 = add i32 %86, %69
  %88 = xor i32 %87, %59
  %89 = tail call i32 @llvm.fshl.i32(i32 %88, i32 %88, i32 12)
  %90 = add i32 %89, %84
  %91 = xor i32 %90, %86
  %92 = tail call i32 @llvm.fshl.i32(i32 %91, i32 %91, i32 8)
  %93 = add i32 %92, %87
  %94 = xor i32 %93, %89
  %95 = tail call i32 @llvm.fshl.i32(i32 %94, i32 %94, i32 7)
  %96 = add i32 %71, %54
  %97 = xor i32 %96, %44
  %98 = tail call i32 @llvm.fshl.i32(i32 %97, i32 %97, i32 16)
  %99 = add i32 %98, %81
  %100 = xor i32 %99, %71
  %101 = tail call i32 @llvm.fshl.i32(i32 %100, i32 %100, i32 12)
  %102 = add i32 %101, %96
  %103 = xor i32 %102, %98
  %104 = tail call i32 @llvm.fshl.i32(i32 %103, i32 %103, i32 8)
  %105 = add i32 %104, %99
  %106 = xor i32 %105, %101
  %107 = tail call i32 @llvm.fshl.i32(i32 %106, i32 %106, i32 7)
  %108 = add i32 %83, %66
  %109 = xor i32 %108, %56
  %110 = tail call i32 @llvm.fshl.i32(i32 %109, i32 %109, i32 16)
  %111 = add i32 %110, %45
  %112 = xor i32 %111, %83
  %113 = tail call i32 @llvm.fshl.i32(i32 %112, i32 %112, i32 12)
  %114 = add i32 %113, %108
  %115 = xor i32 %114, %110
  %116 = tail call i32 @llvm.fshl.i32(i32 %115, i32 %115, i32 8)
  %117 = add i32 %116, %111
  %118 = xor i32 %117, %113
  %119 = tail call i32 @llvm.fshl.i32(i32 %118, i32 %118, i32 7)
  %120 = add i32 %78, %47
  %121 = xor i32 %120, %68
  %122 = tail call i32 @llvm.fshl.i32(i32 %121, i32 %121, i32 16)
  %123 = add i32 %122, %57
  %124 = xor i32 %123, %47
  %125 = tail call i32 @llvm.fshl.i32(i32 %124, i32 %124, i32 12)
  %126 = add i32 %125, %120
  %127 = xor i32 %126, %122
  %128 = tail call i32 @llvm.fshl.i32(i32 %127, i32 %127, i32 8)
  %129 = add i32 %128, %123
  %130 = xor i32 %129, %125
  %131 = tail call i32 @llvm.fshl.i32(i32 %130, i32 %130, i32 7)
  %132 = add nuw nsw i64 %.054, 1
  %exitcond.not = icmp eq i64 %132, 10
  br i1 %exitcond.not, label %133, label %19, !llvm.loop !16

133:                                              ; preds = %19
  %134 = load i32, ptr %0, align 4, !tbaa !8
  %135 = add i32 %90, %134
  store i32 %135, ptr %3, align 16, !tbaa !8
  %136 = getelementptr inbounds nuw i8, ptr %0, i64 4
  %137 = load i32, ptr %136, align 4, !tbaa !8
  %138 = add i32 %102, %137
  store i32 %138, ptr %8, align 4, !tbaa !8
  %139 = getelementptr inbounds nuw i8, ptr %0, i64 8
  %140 = load i32, ptr %139, align 4, !tbaa !8
  %141 = add i32 %114, %140
  store i32 %141, ptr %12, align 8, !tbaa !8
  %142 = getelementptr inbounds nuw i8, ptr %0, i64 12
  %143 = load i32, ptr %142, align 4, !tbaa !8
  %144 = add i32 %126, %143
  store i32 %144, ptr %16, align 4, !tbaa !8
  %145 = getelementptr inbounds nuw i8, ptr %0, i64 16
  %146 = load i32, ptr %145, align 4, !tbaa !8
  %147 = add i32 %131, %146
  store i32 %147, ptr %4, align 16, !tbaa !8
  %148 = getelementptr inbounds nuw i8, ptr %0, i64 20
  %149 = load i32, ptr %148, align 4, !tbaa !8
  %150 = add i32 %95, %149
  store i32 %150, ptr %7, align 4, !tbaa !8
  %151 = getelementptr inbounds nuw i8, ptr %0, i64 24
  %152 = load i32, ptr %151, align 4, !tbaa !8
  %153 = add i32 %107, %152
  store i32 %153, ptr %11, align 8, !tbaa !8
  %154 = getelementptr inbounds nuw i8, ptr %0, i64 28
  %155 = load i32, ptr %154, align 4, !tbaa !8
  %156 = add i32 %119, %155
  store i32 %156, ptr %15, align 4, !tbaa !8
  %157 = getelementptr inbounds nuw i8, ptr %0, i64 32
  %158 = load i32, ptr %157, align 4, !tbaa !8
  %159 = add i32 %117, %158
  store i32 %159, ptr %6, align 16, !tbaa !8
  %160 = getelementptr inbounds nuw i8, ptr %0, i64 36
  %161 = load i32, ptr %160, align 4, !tbaa !8
  %162 = add i32 %129, %161
  store i32 %162, ptr %10, align 4, !tbaa !8
  %163 = getelementptr inbounds nuw i8, ptr %0, i64 40
  %164 = load i32, ptr %163, align 4, !tbaa !8
  %165 = add i32 %93, %164
  store i32 %165, ptr %14, align 8, !tbaa !8
  %166 = getelementptr inbounds nuw i8, ptr %0, i64 44
  %167 = load i32, ptr %166, align 4, !tbaa !8
  %168 = add i32 %105, %167
  store i32 %168, ptr %18, align 4, !tbaa !8
  %169 = getelementptr inbounds nuw i8, ptr %0, i64 48
  %170 = load i32, ptr %169, align 4, !tbaa !8
  %171 = add i32 %104, %170
  store i32 %171, ptr %5, align 16, !tbaa !8
  %172 = getelementptr inbounds nuw i8, ptr %0, i64 52
  %173 = load i32, ptr %172, align 4, !tbaa !8
  %174 = add i32 %116, %173
  store i32 %174, ptr %9, align 4, !tbaa !8
  %175 = getelementptr inbounds nuw i8, ptr %0, i64 56
  %176 = load i32, ptr %175, align 4, !tbaa !8
  %177 = add i32 %128, %176
  store i32 %177, ptr %13, align 8, !tbaa !8
  %178 = getelementptr inbounds nuw i8, ptr %0, i64 60
  %179 = load i32, ptr %178, align 4, !tbaa !8
  %180 = add i32 %92, %179
  store i32 %180, ptr %17, align 4, !tbaa !8
  call void @llvm.memcpy.p0.p0.i64(ptr noundef nonnull align 1 dereferenceable(64) %1, ptr noundef nonnull align 16 dereferenceable(64) %3, i64 64, i1 false)
  call void @mbedtls_platform_zeroize(ptr noundef nonnull %3, i64 noundef 64) #10
  call void @llvm.lifetime.end.p0(i64 64, ptr nonnull %3) #10
  ret void
}